target datalayout = "e-m:e-p270:32:32-p271:32:32-p272:64:64-i64:64-i128:128-f80:128-n8:16:32:64-S128"
target triple = "x86_64-pc-linux-gnu"

%struct.__va_list_tag = type { i32, i32, ptr, ptr }

@TextFormat.buffers = internal global [4 x [1024 x i8]] zeroinitializer, align 16
@TextFormat.index = internal global i32 0, align 4
@.str.61 = private unnamed_addr constant [4 x i8] c"...\00", align 1

; Function Attrs: nounwind uwtable
define ptr @TextFormat(ptr noundef %0, ...) #0 {
  %2 = alloca ptr, align 8
  %3 = alloca ptr, align 8
  %4 = alloca [1 x %struct.__va_list_tag], align 16
  %5 = alloca i32, align 4
  %6 = alloca ptr, align 8
  store ptr %0, ptr %2, align 8
  call void @llvm.lifetime.start.p0(i64 8, ptr %3) #13
  %7 = load i32, ptr @TextFormat.index, align 4
  %8 = sext i32 %7 to i64
  %9 = getelementptr inbounds [4 x [1024 x i8]], ptr @TextFormat.buffers, i64 0, i64 %8
  %10 = getelementptr inbounds [1024 x i8], ptr %9, i64 0, i64 0
  store ptr %10, ptr %3, align 8
  %11 = load ptr, ptr %3, align 8
  call void @llvm.memset.p0.i64(ptr align 1 %11, i8 0, i64 1024, i1 false)
  call void @llvm.lifetime.start.p0(i64 24, ptr %4) #13
  %12 = getelementptr inbounds [1 x %struct.__va_list_tag], ptr %4, i64 0, i64 0
  call void @llvm.va_start.p0(ptr %12)
  call void @llvm.lifetime.start.p0(i64 4, ptr %5) #13
  %13 = load ptr, ptr %3, align 8
  %14 = load ptr, ptr %2, align 8
  %15 = getelementptr inbounds [1 x %struct.__va_list_tag], ptr %4, i64 0, i64 0
  %16 = call i32 @vsnprintf(ptr noundef %13, i64 noundef 1024, ptr noundef %14, ptr noundef %15) #13
  store i32 %16, ptr %5, align 4
  %17 = getelementptr inbounds [1 x %struct.__va_list_tag], ptr %4, i64 0, i64 0
  call void @llvm.va_end.p0(ptr %17)
  %18 = load i32, ptr %5, align 4
  %19 = icmp sge i32 %18, 1024
  br i1 %19, label %20, label %29

20:                                               ; preds = %1
  call void @llvm.lifetime.start.p0(i64 8, ptr %6) #13
  %21 = load i32, ptr @TextFormat.index, align 4
  %22 = sext i32 %21 to i64
  %23 = getelementptr inbounds [4 x [1024 x i8]], ptr @TextFormat.buffers, i64 0, i64 %22
  %24 = getelementptr inbounds [1024 x i8], ptr %23, i64 0, i64 0
  %25 = getelementptr inbounds i8, ptr %24, i64 1024
  %26 = getelementptr inbounds i8, ptr %25, i64 -4
  store ptr %26, ptr %6, align 8
  %27 = load ptr, ptr %6, align 8
  %28 = call i32 (ptr, ptr, ...) @sprintf(ptr noundef %27, ptr noundef @.str.61) #13
  call void @llvm.lifetime.end.p0(i64 8, ptr %6) #13
  br label %29

29:                                               ; preds = %20, %1
  %30 = load i32, ptr @TextFormat.index, align 4
  %31 = add nsw i32 %30, 1
  store i32 %31, ptr @TextFormat.index, align 4
  %32 = load i32, ptr @TextFormat.index, align 4
  %33 = icmp sge i32 %32, 4
  br i1 %33, label %34, label %35

34:                                               ; preds = %29
  store i32 0, ptr @TextFormat.index, align 4
  br label %35

35:                                               ; preds = %34, %29
  %36 = load ptr, ptr %3, align 8
  call void @llvm.lifetime.end.p0(i64 4, ptr %5) #13
  call void @llvm.lifetime.end.p0(i64 24, ptr %4) #13
  call void @llvm.lifetime.end.p0(i64 8, ptr %3) #13
  ret ptr %36
}