; Function Attrs: nofree nounwind uwtable
define noundef nonnull ptr @TextFormat(ptr noundef readonly captures(none) %0, ...) local_unnamed_addr #3 {
  %2 = alloca [1 x %struct.__va_list_tag], align 16
  %3 = load i32, ptr @TextFormat.index, align 4
  %4 = sext i32 %3 to i64
  %5 = getelementptr inbounds [4 x [1024 x i8]], ptr @TextFormat.buffers, i64 0, i64 %4
  tail call void @llvm.memset.p0.i64(ptr noundef nonnull align 16 dereferenceable(1024) %5, i8 0, i64 1024, i1 false)
  call void @llvm.lifetime.start.p0(i64 24, ptr nonnull %2) #41
  call void @llvm.va_start.p0(ptr nonnull %2)
  %6 = call i32 @vsnprintf(ptr noundef nonnull %5, i64 noundef 1024, ptr noundef %0, ptr noundef nonnull %2) #41
  call void @llvm.va_end.p0(ptr nonnull %2)
  %7 = icmp sgt i32 %6, 1023
  %.pre = load i32, ptr @TextFormat.index, align 4
  br i1 %7, label %8, label %11

8:                                                ; preds = %1
  %9 = sext i32 %.pre to i64
  %10 = getelementptr inbounds [4 x [1024 x i8]], ptr @TextFormat.buffers, i64 0, i64 %9, i64 1020
  store i32 3026478, ptr %10, align 4
  br label %11

11:                                               ; preds = %8, %1
  %12 = add nsw i32 %.pre, 1
  %13 = icmp sgt i32 %.pre, 2
  %spec.store.select = select i1 %13, i32 0, i32 %12
  store i32 %spec.store.select, ptr @TextFormat.index, align 4
  call void @llvm.lifetime.end.p0(i64 24, ptr nonnull %2) #41
  ret ptr %5
}